ccollections
defaultdict
p1
(tRp2
I0
I64
sI1
I43
sI2
I37
sI3
I26
sI4
I47
sI5
I17
sI6
I535
sI7
I8
sI8
I25
sI9
I510
sI10
I40
sI11
I33
sI12
I25
sI13
I197
sI14
I263
sI15
I122
sI16
I0
sI17
I59
sI18
I65
sI19
I40
sI20
I87
sI21
I311
sI22
I0
sI23
I18
sI24
I319
sI25
I23
sI26
I145
sI27
I109
sI28
I10
sI29
I0
sI30
I137
sI31
I196
sI32
I115
sI33
I249
sI34
I16
sI35
I27
sI36
I182
sI37
I149
sI38
I81
sI39
I13
s.